target datalayout = "e-m:e-p270:32:32-p271:32:32-p272:64:64-i64:64-i128:128-f80:128-n8:16:32:64-S128"
target triple = "x86_64-pc-linux-gnu"

; Function Attrs: mustprogress nounwind uwtable
define noundef i32 @_ZN7rocksdb14InternalCFStatENS_15WriteStallCauseENS_19WriteStallConditionE(i32 noundef %0, i32 noundef %1) #3 {
  %3 = alloca i32, align 4
  %4 = alloca i32, align 4
  %5 = alloca i32, align 4
  store i32 %0, ptr %4, align 4, !tbaa !47
  store i32 %1, ptr %5, align 4, !tbaa !49
  %6 = load i32, ptr %4, align 4, !tbaa !47
  switch i32 %6, label %22 [
    i32 0, label %7
    i32 1, label %12
    i32 2, label %17
  ]

7:                                                ; preds = %2
  %8 = load i32, ptr %5, align 4, !tbaa !49
  switch i32 %8, label %11 [
    i32 0, label %9
    i32 1, label %10
    i32 2, label %11
  ]

9:                                                ; preds = %7
  store i32 0, ptr %3, align 4
  br label %24

10:                                               ; preds = %7
  store i32 1, ptr %3, align 4
  br label %24

11:                                               ; preds = %7, %7
  br label %23

12:                                               ; preds = %2
  %13 = load i32, ptr %5, align 4, !tbaa !49
  switch i32 %13, label %16 [
    i32 0, label %14
    i32 1, label %15
    i32 2, label %16
  ]

14:                                               ; preds = %12
  store i32 2, ptr %3, align 4
  br label %24

15:                                               ; preds = %12
  store i32 3, ptr %3, align 4
  br label %24

16:                                               ; preds = %12, %12
  br label %23

17:                                               ; preds = %2
  %18 = load i32, ptr %5, align 4, !tbaa !49
  switch i32 %18, label %21 [
    i32 0, label %19
    i32 1, label %20
    i32 2, label %21
  ]

19:                                               ; preds = %17
  store i32 4, ptr %3, align 4
  br label %24

20:                                               ; preds = %17
  store i32 5, ptr %3, align 4
  br label %24

21:                                               ; preds = %17, %17
  br label %23

22:                                               ; preds = %2
  br label %23

23:                                               ; preds = %22, %21, %16, %11
  store i32 14, ptr %3, align 4
  br label %24

24:                                               ; preds = %23, %20, %19, %15, %14, %10, %9
  %25 = load i32, ptr %3, align 4
  ret i32 %25
}