; Function Attrs: mustprogress nofree norecurse nosync nounwind willreturn memory(none) uwtable
define noundef range(i32 0, 15) i32 @_ZN7rocksdb14InternalCFStatENS_15WriteStallCauseENS_19WriteStallConditionE(i32 noundef %0, i32 noundef %1) local_unnamed_addr #5 {
  switch i32 %0, label %6 [
    i32 0, label %3
    i32 1, label %4
    i32 2, label %5
  ]

3:                                                ; preds = %2
  %switch.selectcmp = icmp eq i32 %1, 1
  %switch.select = select i1 %switch.selectcmp, i32 1, i32 14
  %switch.selectcmp5 = icmp eq i32 %1, 0
  %switch.select6 = select i1 %switch.selectcmp5, i32 0, i32 %switch.select
  br label %6

4:                                                ; preds = %2
  %switch.selectcmp7 = icmp eq i32 %1, 1
  %switch.select8 = select i1 %switch.selectcmp7, i32 3, i32 14
  %switch.selectcmp9 = icmp eq i32 %1, 0
  %switch.select10 = select i1 %switch.selectcmp9, i32 2, i32 %switch.select8
  br label %6

5:                                                ; preds = %2
  %switch.selectcmp11 = icmp eq i32 %1, 1
  %switch.select12 = select i1 %switch.selectcmp11, i32 5, i32 14
  %switch.selectcmp13 = icmp eq i32 %1, 0
  %switch.select14 = select i1 %switch.selectcmp13, i32 4, i32 %switch.select12
  br label %6

6:                                                ; preds = %2, %5, %4, %3
  %.0 = phi i32 [ %switch.select6, %3 ], [ %switch.select10, %4 ], [ %switch.select14, %5 ], [ 14, %2 ]
  ret i32 %.0
}